target datalayout = "e-m:e-p270:32:32-p271:32:32-p272:64:64-i64:64-i128:128-f80:128-n8:16:32:64-S128"
target triple = "x86_64-pc-linux-gnu"

%struct._lv_indev_t = type { i32, ptr, i32, i32, i32, i8, i32, i32, ptr, ptr, ptr, ptr, i8, i8, i8, i8, i16, i16, i32, %struct.anon, %struct.anon.0, ptr, ptr, ptr, %struct.lv_event_list_t, ptr, i32, ptr }
%struct.anon = type { %struct.lv_point_t, %struct.lv_point_t, %struct.lv_point_t, %struct.lv_point_t, %struct.lv_point_t, %struct.lv_point_t, %struct.lv_point_t, ptr, ptr, ptr, ptr, ptr, %struct.lv_area_t, %struct.lv_point_t, i32, i8, %struct.lv_point_t, i32, i16 }
%struct.lv_area_t = type { i32, i32, i32, i32 }
%struct.lv_point_t = type { i32, i32 }
%struct.anon.0 = type { i32, i32 }
%struct.lv_event_list_t = type { %struct._lv_array_t, i8 }
%struct._lv_array_t = type { ptr, i32, i32, i32, i8 }

; Function Attrs: nounwind uwtable
define internal void @indev_scroll_throw_anim_cb(ptr noundef %0, i32 noundef %1) #0 {
  %3 = alloca ptr, align 8
  %4 = alloca i32, align 4
  %5 = alloca ptr, align 8
  store ptr %0, ptr %3, align 8, !tbaa !35
  store i32 %1, ptr %4, align 4, !tbaa !41
  br label %6

6:                                                ; preds = %2
  %7 = load ptr, ptr %3, align 8, !tbaa !35
  %8 = icmp ne ptr %7, null
  br i1 %8, label %13, label %9

9:                                                ; preds = %6
  br label %10

10:                                               ; preds = %9
  br label %11

11:                                               ; preds = %10
  br label %12

12:                                               ; preds = %11, %12
  br label %12

13:                                               ; preds = %6
  br label %14

14:                                               ; preds = %13
  call void @llvm.lifetime.start.p0(i64 8, ptr %5) #6
  %15 = load ptr, ptr %3, align 8, !tbaa !35
  store ptr %15, ptr %5, align 8, !tbaa !8
  %16 = load ptr, ptr %5, align 8, !tbaa !8
  call void @lv_indev_scroll_throw_handler(ptr noundef %16)
  %17 = load ptr, ptr %5, align 8, !tbaa !8
  %18 = getelementptr inbounds nuw %struct._lv_indev_t, ptr %17, i32 0, i32 19
  %19 = getelementptr inbounds nuw %struct.anon, ptr %18, i32 0, i32 18
  %20 = load i16, ptr %19, align 4
  %21 = and i16 %20, 15
  %22 = trunc i16 %21 to i8
  %23 = zext i8 %22 to i32
  %24 = icmp eq i32 %23, 0
  br i1 %24, label %31, label %25

25:                                               ; preds = %14
  %26 = load ptr, ptr %5, align 8, !tbaa !8
  %27 = getelementptr inbounds nuw %struct._lv_indev_t, ptr %26, i32 0, i32 19
  %28 = getelementptr inbounds nuw %struct.anon, ptr %27, i32 0, i32 9
  %29 = load ptr, ptr %28, align 8, !tbaa !85
  %30 = icmp eq ptr %29, null
  br i1 %30, label %31, label %43

31:                                               ; preds = %25, %14
  %32 = load ptr, ptr %5, align 8, !tbaa !8
  %33 = getelementptr inbounds nuw %struct._lv_indev_t, ptr %32, i32 0, i32 25
  %34 = load ptr, ptr %33, align 8, !tbaa !154
  %35 = icmp ne ptr %34, null
  br i1 %35, label %36, label %42

36:                                               ; preds = %31
  br label %37

37:                                               ; preds = %36
  br label %38

38:                                               ; preds = %37
  br label %39

39:                                               ; preds = %38
  %40 = load ptr, ptr %5, align 8, !tbaa !8
  %41 = call zeroext i1 @lv_anim_delete(ptr noundef %40, ptr noundef @indev_scroll_throw_anim_cb)
  br label %42

42:                                               ; preds = %39, %31
  br label %43

43:                                               ; preds = %42, %25
  call void @llvm.lifetime.end.p0(i64 8, ptr %5) #6
  ret void
}