; Function Attrs: nounwind uwtable
define internal void @indev_scroll_throw_anim_cb(ptr noundef %0, i32 %1) #0 {
  %.not = icmp eq ptr %0, null
  br i1 %.not, label %.preheader, label %3

.preheader:                                       ; preds = %2, %.preheader
  br label %.preheader

3:                                                ; preds = %2
  tail call void @lv_indev_scroll_throw_handler(ptr noundef nonnull %0) #11
  %4 = getelementptr inbounds nuw i8, ptr %0, i64 228
  %5 = load i16, ptr %4, align 4
  %6 = and i16 %5, 15
  %7 = icmp eq i16 %6, 0
  br i1 %7, label %12, label %8

8:                                                ; preds = %3
  %9 = getelementptr inbounds nuw i8, ptr %0, i64 160
  %10 = load ptr, ptr %9, align 8, !tbaa !61
  %11 = icmp eq ptr %10, null
  br i1 %11, label %12, label %17

12:                                               ; preds = %8, %3
  %13 = getelementptr inbounds nuw i8, ptr %0, i64 296
  %14 = load ptr, ptr %13, align 8, !tbaa !140
  %.not7 = icmp eq ptr %14, null
  br i1 %.not7, label %17, label %15

15:                                               ; preds = %12
  %16 = tail call zeroext i1 @lv_anim_delete(ptr noundef nonnull %0, ptr noundef nonnull @indev_scroll_throw_anim_cb) #11
  br label %17

17:                                               ; preds = %12, %15, %8
  ret void
}